; ModuleID = '39/756.c'
source_filename = "39/756.c"
target datalayout = "e-m:e-p270:32:32-p271:32:32-p272:64:64-i64:64-f80:128-n8:16:32:64-S128"
target triple = "x86_64-pc-linux-gnu"

@.str = private unnamed_addr constant [3 x i8] c"%d\00", align 1
@.str.1 = private unnamed_addr constant [15 x i8] c"%s%d%d %c %c%d\00", align 1
@.str.2 = private unnamed_addr constant [3 x i8] c"%s\00", align 1
@.str.3 = private unnamed_addr constant [7 x i8] c"\0A%d\0A%d\00", align 1

; Function Attrs: noinline nounwind uwtable
define dso_local i32 @main() #0 {
  %1 = alloca i32, align 4
  %2 = alloca [100 x [30 x i8]], align 16
  %3 = alloca i32, align 4
  %4 = alloca i32, align 4
  %5 = alloca i32, align 4
  %6 = alloca i32, align 4
  %7 = alloca i32, align 4
  %8 = alloca [100 x [4 x i32]], align 16
  %9 = alloca i8, align 1
  %10 = alloca i8, align 1
  store i32 0, i32* %1, align 4
  store i32 0, i32* %5, align 4
  store i32 0, i32* %7, align 4
  %11 = call i32 (i8*, ...) @__isoc99_scanf(i8* getelementptr inbounds ([3 x i8], [3 x i8]* @.str, i64 0, i64 0), i32* %3)
  store i32 0, i32* %4, align 4
  br label %12

12:                                               ; preds = %167, %0
  %13 = load i32, i32* %4, align 4
  %14 = load i32, i32* %3, align 4
  %15 = icmp slt i32 %13, %14
  br i1 %15, label %16, label %170

16:                                               ; preds = %12
  %17 = load i32, i32* %4, align 4
  %18 = sext i32 %17 to i64
  %19 = getelementptr inbounds [100 x [4 x i32]], [100 x [4 x i32]]* %8, i64 0, i64 %18
  %20 = getelementptr inbounds [4 x i32], [4 x i32]* %19, i64 0, i64 3
  store i32 0, i32* %20, align 4
  %21 = load i32, i32* %4, align 4
  %22 = sext i32 %21 to i64
  %23 = getelementptr inbounds [100 x [30 x i8]], [100 x [30 x i8]]* %2, i64 0, i64 %22
  %24 = getelementptr inbounds [30 x i8], [30 x i8]* %23, i64 0, i64 0
  %25 = load i32, i32* %4, align 4
  %26 = sext i32 %25 to i64
  %27 = getelementptr inbounds [100 x [4 x i32]], [100 x [4 x i32]]* %8, i64 0, i64 %26
  %28 = getelementptr inbounds [4 x i32], [4 x i32]* %27, i64 0, i64 0
  %29 = load i32, i32* %4, align 4
  %30 = sext i32 %29 to i64
  %31 = getelementptr inbounds [100 x [4 x i32]], [100 x [4 x i32]]* %8, i64 0, i64 %30
  %32 = getelementptr inbounds [4 x i32], [4 x i32]* %31, i64 0, i64 1
  %33 = load i32, i32* %4, align 4
  %34 = sext i32 %33 to i64
  %35 = getelementptr inbounds [100 x [4 x i32]], [100 x [4 x i32]]* %8, i64 0, i64 %34
  %36 = getelementptr inbounds [4 x i32], [4 x i32]* %35, i64 0, i64 2
  %37 = call i32 (i8*, ...) @__isoc99_scanf(i8* getelementptr inbounds ([15 x i8], [15 x i8]* @.str.1, i64 0, i64 0), i8* %24, i32* %28, i32* %32, i8* %10, i8* %9, i32* %36)
  %38 = load i32, i32* %4, align 4
  %39 = sext i32 %38 to i64
  %40 = getelementptr inbounds [100 x [4 x i32]], [100 x [4 x i32]]* %8, i64 0, i64 %39
  %41 = getelementptr inbounds [4 x i32], [4 x i32]* %40, i64 0, i64 0
  %42 = load i32, i32* %41, align 16
  %43 = icmp sgt i32 %42, 80
  br i1 %43, label %44, label %63

44:                                               ; preds = %16
  %45 = load i32, i32* %4, align 4
  %46 = sext i32 %45 to i64
  %47 = getelementptr inbounds [100 x [4 x i32]], [100 x [4 x i32]]* %8, i64 0, i64 %46
  %48 = getelementptr inbounds [4 x i32], [4 x i32]* %47, i64 0, i64 2
  %49 = load i32, i32* %48, align 8
  %50 = icmp ne i32 %49, 0
  br i1 %50, label %51, label %62

51:                                               ; preds = %44
  %52 = load i32, i32* %4, align 4
  %53 = sext i32 %52 to i64
  %54 = getelementptr inbounds [100 x [4 x i32]], [100 x [4 x i32]]* %8, i64 0, i64 %53
  %55 = getelementptr inbounds [4 x i32], [4 x i32]* %54, i64 0, i64 3
  %56 = load i32, i32* %55, align 4
  %57 = add nsw i32 %56, 8000
  %58 = load i32, i32* %4, align 4
  %59 = sext i32 %58 to i64
  %60 = getelementptr inbounds [100 x [4 x i32]], [100 x [4 x i32]]* %8, i64 0, i64 %59
  %61 = getelementptr inbounds [4 x i32], [4 x i32]* %60, i64 0, i64 3
  store i32 %57, i32* %61, align 4
  br label %62

62:                                               ; preds = %51, %44
  br label %63

63:                                               ; preds = %62, %16
  %64 = load i32, i32* %4, align 4
  %65 = sext i32 %64 to i64
  %66 = getelementptr inbounds [100 x [4 x i32]], [100 x [4 x i32]]* %8, i64 0, i64 %65
  %67 = getelementptr inbounds [4 x i32], [4 x i32]* %66, i64 0, i64 0
  %68 = load i32, i32* %67, align 16
  %69 = icmp sgt i32 %68, 85
  br i1 %69, label %70, label %104

70:                                               ; preds = %63
  %71 = load i32, i32* %4, align 4
  %72 = sext i32 %71 to i64
  %73 = getelementptr inbounds [100 x [4 x i32]], [100 x [4 x i32]]* %8, i64 0, i64 %72
  %74 = getelementptr inbounds [4 x i32], [4 x i32]* %73, i64 0, i64 1
  %75 = load i32, i32* %74, align 4
  %76 = icmp sgt i32 %75, 80
  br i1 %76, label %77, label %88

77:                                               ; preds = %70
  %78 = load i32, i32* %4, align 4
  %79 = sext i32 %78 to i64
  %80 = getelementptr inbounds [100 x [4 x i32]], [100 x [4 x i32]]* %8, i64 0, i64 %79
  %81 = getelementptr inbounds [4 x i32], [4 x i32]* %80, i64 0, i64 3
  %82 = load i32, i32* %81, align 4
  %83 = add nsw i32 %82, 4000
  %84 = load i32, i32* %4, align 4
  %85 = sext i32 %84 to i64
  %86 = getelementptr inbounds [100 x [4 x i32]], [100 x [4 x i32]]* %8, i64 0, i64 %85
  %87 = getelementptr inbounds [4 x i32], [4 x i32]* %86, i64 0, i64 3
  store i32 %83, i32* %87, align 4
  br label %88

88:                                               ; preds = %77, %70
  %89 = load i8, i8* %9, align 1
  %90 = sext i8 %89 to i32
  %91 = icmp eq i32 %90, 89
  br i1 %91, label %92, label %103

92:                                               ; preds = %88
  %93 = load i32, i32* %4, align 4
  %94 = sext i32 %93 to i64
  %95 = getelementptr inbounds [100 x [4 x i32]], [100 x [4 x i32]]* %8, i64 0, i64 %94
  %96 = getelementptr inbounds [4 x i32], [4 x i32]* %95, i64 0, i64 3
  %97 = load i32, i32* %96, align 4
  %98 = add nsw i32 %97, 1000
  %99 = load i32, i32* %4, align 4
  %100 = sext i32 %99 to i64
  %101 = getelementptr inbounds [100 x [4 x i32]], [100 x [4 x i32]]* %8, i64 0, i64 %100
  %102 = getelementptr inbounds [4 x i32], [4 x i32]* %101, i64 0, i64 3
  store i32 %98, i32* %102, align 4
  br label %103

103:                                              ; preds = %92, %88
  br label %104

104:                                              ; preds = %103, %63
  %105 = load i32, i32* %4, align 4
  %106 = sext i32 %105 to i64
  %107 = getelementptr inbounds [100 x [4 x i32]], [100 x [4 x i32]]* %8, i64 0, i64 %106
  %108 = getelementptr inbounds [4 x i32], [4 x i32]* %107, i64 0, i64 0
  %109 = load i32, i32* %108, align 16
  %110 = icmp sgt i32 %109, 90
  br i1 %110, label %111, label %122

111:                                              ; preds = %104
  %112 = load i32, i32* %4, align 4
  %113 = sext i32 %112 to i64
  %114 = getelementptr inbounds [100 x [4 x i32]], [100 x [4 x i32]]* %8, i64 0, i64 %113
  %115 = getelementptr inbounds [4 x i32], [4 x i32]* %114, i64 0, i64 3
  %116 = load i32, i32* %115, align 4
  %117 = add nsw i32 %116, 2000
  %118 = load i32, i32* %4, align 4
  %119 = sext i32 %118 to i64
  %120 = getelementptr inbounds [100 x [4 x i32]], [100 x [4 x i32]]* %8, i64 0, i64 %119
  %121 = getelementptr inbounds [4 x i32], [4 x i32]* %120, i64 0, i64 3
  store i32 %117, i32* %121, align 4
  br label %122

122:                                              ; preds = %111, %104
  %123 = load i32, i32* %4, align 4
  %124 = sext i32 %123 to i64
  %125 = getelementptr inbounds [100 x [4 x i32]], [100 x [4 x i32]]* %8, i64 0, i64 %124
  %126 = getelementptr inbounds [4 x i32], [4 x i32]* %125, i64 0, i64 1
  %127 = load i32, i32* %126, align 4
  %128 = icmp sgt i32 %127, 80
  br i1 %128, label %129, label %144

129:                                              ; preds = %122
  %130 = load i8, i8* %10, align 1
  %131 = sext i8 %130 to i32
  %132 = icmp eq i32 %131, 89
  br i1 %132, label %133, label %144

133:                                              ; preds = %129
  %134 = load i32, i32* %4, align 4
  %135 = sext i32 %134 to i64
  %136 = getelementptr inbounds [100 x [4 x i32]], [100 x [4 x i32]]* %8, i64 0, i64 %135
  %137 = getelementptr inbounds [4 x i32], [4 x i32]* %136, i64 0, i64 3
  %138 = load i32, i32* %137, align 4
  %139 = add nsw i32 %138, 850
  %140 = load i32, i32* %4, align 4
  %141 = sext i32 %140 to i64
  %142 = getelementptr inbounds [100 x [4 x i32]], [100 x [4 x i32]]* %8, i64 0, i64 %141
  %143 = getelementptr inbounds [4 x i32], [4 x i32]* %142, i64 0, i64 3
  store i32 %139, i32* %143, align 4
  br label %144

144:                                              ; preds = %133, %129, %122
  %145 = load i32, i32* %4, align 4
  %146 = sext i32 %145 to i64
  %147 = getelementptr inbounds [100 x [4 x i32]], [100 x [4 x i32]]* %8, i64 0, i64 %146
  %148 = getelementptr inbounds [4 x i32], [4 x i32]* %147, i64 0, i64 3
  %149 = load i32, i32* %148, align 4
  %150 = load i32, i32* %7, align 4
  %151 = icmp sgt i32 %149, %150
  br i1 %151, label %152, label %159

152:                                              ; preds = %144
  %153 = load i32, i32* %4, align 4
  %154 = sext i32 %153 to i64
  %155 = getelementptr inbounds [100 x [4 x i32]], [100 x [4 x i32]]* %8, i64 0, i64 %154
  %156 = getelementptr inbounds [4 x i32], [4 x i32]* %155, i64 0, i64 3
  %157 = load i32, i32* %156, align 4
  store i32 %157, i32* %7, align 4
  %158 = load i32, i32* %4, align 4
  store i32 %158, i32* %6, align 4
  br label %159

159:                                              ; preds = %152, %144
  %160 = load i32, i32* %5, align 4
  %161 = load i32, i32* %4, align 4
  %162 = sext i32 %161 to i64
  %163 = getelementptr inbounds [100 x [4 x i32]], [100 x [4 x i32]]* %8, i64 0, i64 %162
  %164 = getelementptr inbounds [4 x i32], [4 x i32]* %163, i64 0, i64 3
  %165 = load i32, i32* %164, align 4
  %166 = add nsw i32 %160, %165
  store i32 %166, i32* %5, align 4
  br label %167

167:                                              ; preds = %159
  %168 = load i32, i32* %4, align 4
  %169 = add nsw i32 %168, 1
  store i32 %169, i32* %4, align 4
  br label %12

170:                                              ; preds = %12
  %171 = load i32, i32* %6, align 4
  %172 = sext i32 %171 to i64
  %173 = getelementptr inbounds [100 x [30 x i8]], [100 x [30 x i8]]* %2, i64 0, i64 %172
  %174 = getelementptr inbounds [30 x i8], [30 x i8]* %173, i64 0, i64 0
  %175 = call i32 (i8*, ...) @printf(i8* getelementptr inbounds ([3 x i8], [3 x i8]* @.str.2, i64 0, i64 0), i8* %174)
  %176 = load i32, i32* %7, align 4
  %177 = load i32, i32* %5, align 4
  %178 = call i32 (i8*, ...) @printf(i8* getelementptr inbounds ([7 x i8], [7 x i8]* @.str.3, i64 0, i64 0), i32 %176, i32 %177)
  ret i32 0
}

declare dso_local i32 @__isoc99_scanf(i8*, ...) #1

declare dso_local i32 @printf(i8*, ...) #1


!llvm.module.flags = !{!0}
!llvm.ident = !{!1}

!0 = !{i32 1, !"wchar_size", i32 4}
!1 = !{!"clang version 10.0.0-4ubuntu1 "}
